; ModuleID = '12/115.c'
source_filename = "12/115.c"
target datalayout = "e-m:e-p270:32:32-p271:32:32-p272:64:64-i64:64-f80:128-n8:16:32:64-S128"
target triple = "x86_64-pc-linux-gnu"

@.str = private unnamed_addr constant [3 x i8] c"%d\00", align 1

; Function Attrs: noinline nounwind uwtable
define dso_local i32 @main(i32 %0, i8** %1) #0 {
  %3 = alloca i32, align 4
  %4 = alloca i32, align 4
  %5 = alloca i8**, align 8
  %6 = alloca [15 x i32], align 16
  %7 = alloca i32, align 4
  %8 = alloca i32, align 4
  %9 = alloca i32, align 4
  %10 = alloca i32, align 4
  %11 = alloca i32, align 4
  %12 = alloca i32, align 4
  %13 = alloca i32, align 4
  %14 = alloca i32, align 4
  %15 = alloca i32, align 4
  store i32 0, i32* %3, align 4
  store i32 %0, i32* %4, align 4
  store i8** %1, i8*** %5, align 8
  %16 = getelementptr inbounds [15 x i32], [15 x i32]* %6, i64 0, i64 0
  %17 = call i32 (i8*, ...) @__isoc99_scanf(i8* getelementptr inbounds ([3 x i8], [3 x i8]* @.str, i64 0, i64 0), i32* %16)
  store i32 0, i32* %8, align 4
  store i32 1, i32* %7, align 4
  br label %18

18:                                               ; preds = %34, %2
  %19 = load i32, i32* %7, align 4
  %20 = icmp slt i32 %19, 15
  br i1 %20, label %21, label %37

21:                                               ; preds = %18
  %22 = call i32 (i8*, ...) @__isoc99_scanf(i8* getelementptr inbounds ([3 x i8], [3 x i8]* @.str, i64 0, i64 0), i32* %9)
  %23 = load i32, i32* %9, align 4
  %24 = icmp eq i32 %23, 0
  br i1 %24, label %25, label %26

25:                                               ; preds = %21
  br label %37

26:                                               ; preds = %21
  %27 = load i32, i32* %9, align 4
  %28 = load i32, i32* %7, align 4
  %29 = sext i32 %28 to i64
  %30 = getelementptr inbounds [15 x i32], [15 x i32]* %6, i64 0, i64 %29
  store i32 %27, i32* %30, align 4
  %31 = load i32, i32* %8, align 4
  %32 = add nsw i32 %31, 1
  store i32 %32, i32* %8, align 4
  br label %33

33:                                               ; preds = %26
  br label %34

34:                                               ; preds = %33
  %35 = load i32, i32* %7, align 4
  %36 = add nsw i32 %35, 1
  store i32 %36, i32* %7, align 4
  br label %18

37:                                               ; preds = %25, %18
  store i32 0, i32* %10, align 4
  br label %38

38:                                               ; preds = %81, %37
  %39 = load i32, i32* %10, align 4
  %40 = load i32, i32* %8, align 4
  %41 = sub nsw i32 %40, 1
  %42 = icmp slt i32 %39, %41
  br i1 %42, label %43, label %84

43:                                               ; preds = %38
  %44 = load i32, i32* %10, align 4
  %45 = add nsw i32 %44, 1
  store i32 %45, i32* %11, align 4
  br label %46

46:                                               ; preds = %77, %43
  %47 = load i32, i32* %11, align 4
  %48 = load i32, i32* %8, align 4
  %49 = icmp slt i32 %47, %48
  br i1 %49, label %50, label %80

50:                                               ; preds = %46
  %51 = load i32, i32* %10, align 4
  %52 = sext i32 %51 to i64
  %53 = getelementptr inbounds [15 x i32], [15 x i32]* %6, i64 0, i64 %52
  %54 = load i32, i32* %53, align 4
  %55 = load i32, i32* %11, align 4
  %56 = sext i32 %55 to i64
  %57 = getelementptr inbounds [15 x i32], [15 x i32]* %6, i64 0, i64 %56
  %58 = load i32, i32* %57, align 4
  %59 = icmp sgt i32 %54, %58
  br i1 %59, label %60, label %76

60:                                               ; preds = %50
  %61 = load i32, i32* %10, align 4
  %62 = sext i32 %61 to i64
  %63 = getelementptr inbounds [15 x i32], [15 x i32]* %6, i64 0, i64 %62
  %64 = load i32, i32* %63, align 4
  store i32 %64, i32* %12, align 4
  %65 = load i32, i32* %11, align 4
  %66 = sext i32 %65 to i64
  %67 = getelementptr inbounds [15 x i32], [15 x i32]* %6, i64 0, i64 %66
  %68 = load i32, i32* %67, align 4
  %69 = load i32, i32* %10, align 4
  %70 = sext i32 %69 to i64
  %71 = getelementptr inbounds [15 x i32], [15 x i32]* %6, i64 0, i64 %70
  store i32 %68, i32* %71, align 4
  %72 = load i32, i32* %12, align 4
  %73 = load i32, i32* %11, align 4
  %74 = sext i32 %73 to i64
  %75 = getelementptr inbounds [15 x i32], [15 x i32]* %6, i64 0, i64 %74
  store i32 %72, i32* %75, align 4
  br label %76

76:                                               ; preds = %60, %50
  br label %77

77:                                               ; preds = %76
  %78 = load i32, i32* %11, align 4
  %79 = add nsw i32 %78, 1
  store i32 %79, i32* %11, align 4
  br label %46

80:                                               ; preds = %46
  br label %81

81:                                               ; preds = %80
  %82 = load i32, i32* %10, align 4
  %83 = add nsw i32 %82, 1
  store i32 %83, i32* %10, align 4
  br label %38

84:                                               ; preds = %38
  store i32 0, i32* %13, align 4
  store i32 0, i32* %14, align 4
  br label %85

85:                                               ; preds = %139, %84
  %86 = load i32, i32* %14, align 4
  %87 = load i32, i32* %8, align 4
  %88 = sub nsw i32 %87, 1
  %89 = icmp slt i32 %86, %88
  br i1 %89, label %90, label %142

90:                                               ; preds = %85
  %91 = load i32, i32* %14, align 4
  %92 = add nsw i32 %91, 1
  store i32 %92, i32* %15, align 4
  br label %93

93:                                               ; preds = %135, %90
  %94 = load i32, i32* %15, align 4
  %95 = load i32, i32* %8, align 4
  %96 = icmp slt i32 %94, %95
  br i1 %96, label %97, label %138

97:                                               ; preds = %93
  %98 = load i32, i32* %15, align 4
  %99 = sext i32 %98 to i64
  %100 = getelementptr inbounds [15 x i32], [15 x i32]* %6, i64 0, i64 %99
  %101 = load i32, i32* %100, align 4
  %102 = load i32, i32* %14, align 4
  %103 = sext i32 %102 to i64
  %104 = getelementptr inbounds [15 x i32], [15 x i32]* %6, i64 0, i64 %103
  %105 = load i32, i32* %104, align 4
  %106 = sdiv i32 %101, %105
  %107 = icmp eq i32 %106, 2
  br i1 %107, label %108, label %122

108:                                              ; preds = %97
  %109 = load i32, i32* %15, align 4
  %110 = sext i32 %109 to i64
  %111 = getelementptr inbounds [15 x i32], [15 x i32]* %6, i64 0, i64 %110
  %112 = load i32, i32* %111, align 4
  %113 = load i32, i32* %14, align 4
  %114 = sext i32 %113 to i64
  %115 = getelementptr inbounds [15 x i32], [15 x i32]* %6, i64 0, i64 %114
  %116 = load i32, i32* %115, align 4
  %117 = srem i32 %112, %116
  %118 = icmp eq i32 %117, 0
  br i1 %118, label %119, label %122

119:                                              ; preds = %108
  %120 = load i32, i32* %13, align 4
  %121 = add nsw i32 %120, 1
  store i32 %121, i32* %13, align 4
  br label %122

122:                                              ; preds = %119, %108, %97
  %123 = load i32, i32* %15, align 4
  %124 = sext i32 %123 to i64
  %125 = getelementptr inbounds [15 x i32], [15 x i32]* %6, i64 0, i64 %124
  %126 = load i32, i32* %125, align 4
  %127 = load i32, i32* %14, align 4
  %128 = sext i32 %127 to i64
  %129 = getelementptr inbounds [15 x i32], [15 x i32]* %6, i64 0, i64 %128
  %130 = load i32, i32* %129, align 4
  %131 = sdiv i32 %126, %130
  %132 = icmp sgt i32 %131, 2
  br i1 %132, label %133, label %134

133:                                              ; preds = %122
  br label %138

134:                                              ; preds = %122
  br label %135

135:                                              ; preds = %134
  %136 = load i32, i32* %15, align 4
  %137 = add nsw i32 %136, 1
  store i32 %137, i32* %15, align 4
  br label %93

138:                                              ; preds = %133, %93
  br label %139

139:                                              ; preds = %138
  %140 = load i32, i32* %14, align 4
  %141 = add nsw i32 %140, 1
  store i32 %141, i32* %14, align 4
  br label %85

142:                                              ; preds = %85
  %143 = load i32, i32* %13, align 4
  %144 = call i32 (i8*, ...) @printf(i8* getelementptr inbounds ([3 x i8], [3 x i8]* @.str, i64 0, i64 0), i32 %143)
  ret i32 0
}

declare dso_local i32 @__isoc99_scanf(i8*, ...) #1

declare dso_local i32 @printf(i8*, ...) #1


!llvm.module.flags = !{!0}
!llvm.ident = !{!1}

!0 = !{i32 1, !"wchar_size", i32 4}
!1 = !{!"clang version 10.0.0-4ubuntu1 "}
